target datalayout = "e-m:e-p270:32:32-p271:32:32-p272:64:64-i64:64-i128:128-f80:128-n8:16:32:64-S128"
target triple = "x86_64-pc-linux-gnu"

%struct._grid = type { ptr, ptr, ptr, i32, ptr, ptr }
%struct.cell = type { %struct.gridpt, ptr, %struct.dtlink_s_ }
%struct.gridpt = type { i32, i32 }
%struct.dtlink_s_ = type { ptr, %union.anon.0 }
%union.anon.0 = type { ptr }
%struct.dt_s_ = type { ptr, ptr, %struct.Dtdata_t, ptr, i32, ptr, ptr, ptr }
%struct.Dtdata_t = type { i32, ptr, %union.anon, i32, i32, i32 }
%union.anon = type { ptr }
%struct._node_list = type { ptr, ptr }

@Verbose = external global i8, align 1
@stderr = external global ptr, align 8
@.str = private unnamed_addr constant [17 x i8] c"grid(%d,%d): %s\0A\00", align 1

; Function Attrs: nounwind uwtable
define internal ptr @newNode(ptr noundef %0, ptr noundef %1, ptr noundef %2) #0 {
  %4 = alloca ptr, align 8
  %5 = alloca ptr, align 8
  %6 = alloca ptr, align 8
  %7 = alloca ptr, align 8
  store ptr %0, ptr %4, align 8, !tbaa !7
  store ptr %1, ptr %5, align 8, !tbaa !36
  store ptr %2, ptr %6, align 8, !tbaa !45
  call void @llvm.lifetime.start.p0(i64 8, ptr %7) #9
  %8 = load ptr, ptr %4, align 8, !tbaa !7
  %9 = getelementptr inbounds nuw %struct._grid, ptr %8, i32 0, i32 5
  %10 = load ptr, ptr %9, align 8, !tbaa !34
  %11 = getelementptr inbounds nuw %struct._node_list, ptr %10, i32 1
  store ptr %11, ptr %9, align 8, !tbaa !34
  store ptr %10, ptr %7, align 8, !tbaa !45
  %12 = load ptr, ptr %5, align 8, !tbaa !36
  %13 = load ptr, ptr %7, align 8, !tbaa !45
  %14 = getelementptr inbounds nuw %struct._node_list, ptr %13, i32 0, i32 0
  store ptr %12, ptr %14, align 8, !tbaa !46
  %15 = load ptr, ptr %6, align 8, !tbaa !45
  %16 = load ptr, ptr %7, align 8, !tbaa !45
  %17 = getelementptr inbounds nuw %struct._node_list, ptr %16, i32 0, i32 1
  store ptr %15, ptr %17, align 8, !tbaa !48
  %18 = load ptr, ptr %7, align 8, !tbaa !45
  call void @llvm.lifetime.end.p0(i64 8, ptr %7) #9
  ret ptr %18
}

; Function Attrs: nounwind uwtable
define void @addGrid(ptr noundef %0, i32 noundef %1, i32 noundef %2, ptr noundef %3) #0 {
  %5 = alloca ptr, align 8
  %6 = alloca i32, align 4
  %7 = alloca i32, align 4
  %8 = alloca ptr, align 8
  %9 = alloca ptr, align 8
  %10 = alloca %struct.cell, align 8
  store ptr %0, ptr %5, align 8, !tbaa !7
  store i32 %1, ptr %6, align 4, !tbaa !3
  store i32 %2, ptr %7, align 4, !tbaa !3
  store ptr %3, ptr %8, align 8, !tbaa !36
  call void @llvm.lifetime.start.p0(i64 8, ptr %9) #9
  call void @llvm.lifetime.start.p0(i64 32, ptr %10) #9
  %11 = load i32, ptr %6, align 4, !tbaa !3
  %12 = getelementptr inbounds nuw %struct.cell, ptr %10, i32 0, i32 0
  %13 = getelementptr inbounds nuw %struct.gridpt, ptr %12, i32 0, i32 0
  store i32 %11, ptr %13, align 8, !tbaa !38
  %14 = load i32, ptr %7, align 4, !tbaa !3
  %15 = getelementptr inbounds nuw %struct.cell, ptr %10, i32 0, i32 0
  %16 = getelementptr inbounds nuw %struct.gridpt, ptr %15, i32 0, i32 1
  store i32 %14, ptr %16, align 4, !tbaa !42
  %17 = load ptr, ptr %5, align 8, !tbaa !7
  %18 = getelementptr inbounds nuw %struct._grid, ptr %17, i32 0, i32 0
  %19 = load ptr, ptr %18, align 8, !tbaa !11
  %20 = getelementptr inbounds nuw %struct.dt_s_, ptr %19, i32 0, i32 0
  %21 = load ptr, ptr %20, align 8, !tbaa !29
  %22 = load ptr, ptr %5, align 8, !tbaa !7
  %23 = getelementptr inbounds nuw %struct._grid, ptr %22, i32 0, i32 0
  %24 = load ptr, ptr %23, align 8, !tbaa !11
  %25 = call ptr %21(ptr noundef %24, ptr noundef %10, i32 noundef 1)
  store ptr %25, ptr %9, align 8, !tbaa !10
  %26 = load ptr, ptr %5, align 8, !tbaa !7
  %27 = load ptr, ptr %8, align 8, !tbaa !36
  %28 = load ptr, ptr %9, align 8, !tbaa !10
  %29 = getelementptr inbounds nuw %struct.cell, ptr %28, i32 0, i32 1
  %30 = load ptr, ptr %29, align 8, !tbaa !43
  %31 = call ptr @newNode(ptr noundef %26, ptr noundef %27, ptr noundef %30)
  %32 = load ptr, ptr %9, align 8, !tbaa !10
  %33 = getelementptr inbounds nuw %struct.cell, ptr %32, i32 0, i32 1
  store ptr %31, ptr %33, align 8, !tbaa !43
  %34 = load i8, ptr @Verbose, align 1, !tbaa !44
  %35 = zext i8 %34 to i32
  %36 = icmp sge i32 %35, 3
  br i1 %36, label %37, label %44

37:                                               ; preds = %4
  %38 = load ptr, ptr @stderr, align 8, !tbaa !27
  %39 = load i32, ptr %6, align 4, !tbaa !3
  %40 = load i32, ptr %7, align 4, !tbaa !3
  %41 = load ptr, ptr %8, align 8, !tbaa !36
  %42 = call ptr @agnameof(ptr noundef %41)
  %43 = call i32 (ptr, ptr, ...) @fprintf(ptr noundef %38, ptr noundef @.str, i32 noundef %39, i32 noundef %40, ptr noundef %42) #9
  br label %44

44:                                               ; preds = %37, %4
  call void @llvm.lifetime.end.p0(i64 32, ptr %10) #9
  call void @llvm.lifetime.end.p0(i64 8, ptr %9) #9
  ret void
}