; Function Attrs: nounwind uwtable
define void @addGrid(ptr noundef captures(none) %0, i32 noundef %1, i32 noundef %2, ptr noundef %3) local_unnamed_addr #0 {
  %5 = alloca %struct.cell, align 8
  call void @llvm.lifetime.start.p0(i64 32, ptr nonnull %5) #13
  store i32 %1, ptr %5, align 8, !tbaa !30
  %6 = getelementptr inbounds nuw i8, ptr %5, i64 4
  store i32 %2, ptr %6, align 4, !tbaa !34
  %7 = load ptr, ptr %0, align 8, !tbaa !7
  %8 = load ptr, ptr %7, align 8, !tbaa !22
  %9 = call ptr %8(ptr noundef nonnull %7, ptr noundef nonnull %5, i32 noundef 1) #13
  %10 = getelementptr inbounds nuw i8, ptr %9, i64 8
  %11 = load ptr, ptr %10, align 8, !tbaa !35
  %12 = getelementptr inbounds nuw i8, ptr %0, i64 40
  %13 = load ptr, ptr %12, align 8, !tbaa !27
  %14 = getelementptr inbounds nuw i8, ptr %13, i64 16
  store ptr %14, ptr %12, align 8, !tbaa !27
  store ptr %3, ptr %13, align 8, !tbaa !36
  %15 = getelementptr inbounds nuw i8, ptr %13, i64 8
  store ptr %11, ptr %15, align 8, !tbaa !39
  store ptr %13, ptr %10, align 8, !tbaa !35
  %16 = load i8, ptr @Verbose, align 1, !tbaa !40
  %17 = icmp ugt i8 %16, 2
  br i1 %17, label %18, label %22

18:                                               ; preds = %4
  %19 = load ptr, ptr @stderr, align 8, !tbaa !14
  %20 = call ptr @agnameof(ptr noundef %3) #13
  %21 = call i32 (ptr, ptr, ...) @fprintf(ptr noundef %19, ptr noundef nonnull @.str, i32 noundef %1, i32 noundef %2, ptr noundef %20) #15
  br label %22

22:                                               ; preds = %18, %4
  call void @llvm.lifetime.end.p0(i64 32, ptr nonnull %5) #13
  ret void
}